target datalayout = "e-m:e-p270:32:32-p271:32:32-p272:64:64-i64:64-i128:128-f80:128-n8:16:32:64-S128"
target triple = "x86_64-pc-linux-gnu"

%"class.sentencepiece::unigram::Lattice" = type { ptr, %"class.std::basic_string_view", %"class.std::vector", %"class.std::vector.0", %"class.std::vector.0", %"class.sentencepiece::model::FreeList" }
%"class.std::basic_string_view" = type { i64, ptr }
%"class.std::vector" = type { %"struct.std::_Vector_base" }
%"struct.std::_Vector_base" = type { %"struct.std::_Vector_base<const char *, std::allocator<const char *>>::_Vector_impl" }
%"struct.std::_Vector_base<const char *, std::allocator<const char *>>::_Vector_impl" = type { %"struct.std::_Vector_base<const char *, std::allocator<const char *>>::_Vector_impl_data" }
%"struct.std::_Vector_base<const char *, std::allocator<const char *>>::_Vector_impl_data" = type { ptr, ptr, ptr }
%"class.std::vector.0" = type { %"struct.std::_Vector_base.1" }
%"struct.std::_Vector_base.1" = type { %"struct.std::_Vector_base<std::vector<sentencepiece::unigram::Lattice::Node *>, std::allocator<std::vector<sentencepiece::unigram::Lattice::Node *>>>::_Vector_impl" }
%"struct.std::_Vector_base<std::vector<sentencepiece::unigram::Lattice::Node *>, std::allocator<std::vector<sentencepiece::unigram::Lattice::Node *>>>::_Vector_impl" = type { %"struct.std::_Vector_base<std::vector<sentencepiece::unigram::Lattice::Node *>, std::allocator<std::vector<sentencepiece::unigram::Lattice::Node *>>>::_Vector_impl_data" }
%"struct.std::_Vector_base<std::vector<sentencepiece::unigram::Lattice::Node *>, std::allocator<std::vector<sentencepiece::unigram::Lattice::Node *>>>::_Vector_impl_data" = type { ptr, ptr, ptr }
%"class.sentencepiece::model::FreeList" = type { ptr, %"class.std::vector.5", i64, i64, i64 }
%"class.std::vector.5" = type { %"struct.std::_Vector_base.6" }
%"struct.std::_Vector_base.6" = type { %"struct.std::_Vector_base<sentencepiece::unigram::Lattice::Node *, std::allocator<sentencepiece::unigram::Lattice::Node *>>::_Vector_impl" }
%"struct.std::_Vector_base<sentencepiece::unigram::Lattice::Node *, std::allocator<sentencepiece::unigram::Lattice::Node *>>::_Vector_impl" = type { %"struct.std::_Vector_base<sentencepiece::unigram::Lattice::Node *, std::allocator<sentencepiece::unigram::Lattice::Node *>>::_Vector_impl_data" }
%"struct.std::_Vector_base<sentencepiece::unigram::Lattice::Node *, std::allocator<sentencepiece::unigram::Lattice::Node *>>::_Vector_impl_data" = type { ptr, ptr, ptr }

; Function Attrs: inlinehint mustprogress nounwind uwtable
define linkonce_odr noundef nonnull align 4 dereferenceable(4) ptr @_ZSt3maxIiERKT_S2_S2_(ptr noundef nonnull align 4 dereferenceable(4) %0, ptr noundef nonnull align 4 dereferenceable(4) %1) #7 comdat {
  %3 = alloca ptr, align 8
  %4 = alloca ptr, align 8
  %5 = alloca ptr, align 8
  store ptr %0, ptr %4, align 8, !tbaa !48
  store ptr %1, ptr %5, align 8, !tbaa !48
  %6 = load ptr, ptr %4, align 8, !tbaa !48
  %7 = load i32, ptr %6, align 4, !tbaa !46
  %8 = load ptr, ptr %5, align 8, !tbaa !48
  %9 = load i32, ptr %8, align 4, !tbaa !46
  %10 = icmp slt i32 %7, %9
  br i1 %10, label %11, label %13

11:                                               ; preds = %2
  %12 = load ptr, ptr %5, align 8, !tbaa !48
  store ptr %12, ptr %3, align 8
  br label %15

13:                                               ; preds = %2
  %14 = load ptr, ptr %4, align 8, !tbaa !48
  store ptr %14, ptr %3, align 8
  br label %15

15:                                               ; preds = %13, %11
  %16 = load ptr, ptr %3, align 8
  ret ptr %16
}

; Function Attrs: mustprogress nounwind uwtable
define linkonce_odr noundef i64 @_ZNKSt6vectorIPKcSaIS1_EE4sizeEv(ptr noundef nonnull align 8 dereferenceable(24) %0) #5 comdat align 2 {
  %2 = alloca ptr, align 8
  store ptr %0, ptr %2, align 8, !tbaa !17
  %3 = load ptr, ptr %2, align 8
  %4 = getelementptr inbounds nuw %"struct.std::_Vector_base", ptr %3, i32 0, i32 0
  %5 = getelementptr inbounds nuw %"struct.std::_Vector_base<const char *, std::allocator<const char *>>::_Vector_impl_data", ptr %4, i32 0, i32 1
  %6 = load ptr, ptr %5, align 8, !tbaa !41
  %7 = getelementptr inbounds nuw %"struct.std::_Vector_base", ptr %3, i32 0, i32 0
  %8 = getelementptr inbounds nuw %"struct.std::_Vector_base<const char *, std::allocator<const char *>>::_Vector_impl_data", ptr %7, i32 0, i32 0
  %9 = load ptr, ptr %8, align 8, !tbaa !38
  %10 = ptrtoint ptr %6 to i64
  %11 = ptrtoint ptr %9 to i64
  %12 = sub i64 %10, %11
  %13 = sdiv exact i64 %12, 8
  ret i64 %13
}

; Function Attrs: mustprogress uwtable
define noundef i32 @_ZNK13sentencepiece7unigram7Lattice4sizeEv(ptr noundef nonnull align 8 dereferenceable(152) %0) #4 align 2 {
  %2 = alloca ptr, align 8
  %3 = alloca i32, align 4
  %4 = alloca i32, align 4
  store ptr %0, ptr %2, align 8, !tbaa !3
  %5 = load ptr, ptr %2, align 8
  call void @llvm.lifetime.start.p0(i64 4, ptr %3) #3
  store i32 0, ptr %3, align 4, !tbaa !46
  call void @llvm.lifetime.start.p0(i64 4, ptr %4) #3
  %6 = getelementptr inbounds nuw %"class.sentencepiece::unigram::Lattice", ptr %5, i32 0, i32 2
  %7 = call noundef i64 @_ZNKSt6vectorIPKcSaIS1_EE4sizeEv(ptr noundef nonnull align 8 dereferenceable(24) %6) #3
  %8 = sub i64 %7, 1
  %9 = trunc i64 %8 to i32
  store i32 %9, ptr %4, align 4, !tbaa !46
  %10 = call noundef nonnull align 4 dereferenceable(4) ptr @_ZSt3maxIiERKT_S2_S2_(ptr noundef nonnull align 4 dereferenceable(4) %3, ptr noundef nonnull align 4 dereferenceable(4) %4)
  %11 = load i32, ptr %10, align 4, !tbaa !46
  call void @llvm.lifetime.end.p0(i64 4, ptr %4) #3
  call void @llvm.lifetime.end.p0(i64 4, ptr %3) #3
  ret i32 %11
}