; Function Attrs: mustprogress nofree norecurse nosync nounwind willreturn memory(argmem: read) uwtable
define noundef range(i32 0, -2147483648) i32 @_ZNK13sentencepiece7unigram7Lattice4sizeEv(ptr noundef nonnull readonly align 8 captures(none) dereferenceable(152) %0) local_unnamed_addr #6 align 2 {
  %2 = getelementptr inbounds nuw i8, ptr %0, i64 24
  %3 = getelementptr inbounds nuw i8, ptr %0, i64 32
  %4 = load ptr, ptr %3, align 8, !tbaa !33
  %5 = load ptr, ptr %2, align 8, !tbaa !29
  %6 = ptrtoint ptr %4 to i64
  %7 = ptrtoint ptr %5 to i64
  %8 = sub i64 %6, %7
  %9 = lshr exact i64 %8, 3
  %10 = trunc i64 %9 to i32
  %11 = add i32 %10, -1
  %.sroa.speculated = tail call i32 @llvm.smax.i32(i32 %11, i32 0)
  ret i32 %.sroa.speculated
}